
cmake-build-llib/llib:     file format elf32-littlearm


Disassembly of section .text:

00000000 <__vectors>:
   0:	00 40 01 20 21 00 00 00 00 00 00 00 00 00 00 00     .@. !...........
	...

00000020 <__startup>:
  20:	2100      	movs	r1, #0
  22:	b508      	push	{r3, lr}
  24:	4a21      	ldr	r2, [pc, #132]	; (ac <__startup+0x8c>)
  26:	4b22      	ldr	r3, [pc, #136]	; (b0 <__startup+0x90>)
  28:	4293      	cmp	r3, r2
  2a:	d136      	bne.n	9a <__startup+0x7a>
  2c:	2200      	movs	r2, #0
  2e:	4921      	ldr	r1, [pc, #132]	; (b4 <__startup+0x94>)
  30:	4b21      	ldr	r3, [pc, #132]	; (b8 <__startup+0x98>)
  32:	4822      	ldr	r0, [pc, #136]	; (bc <__startup+0x9c>)
  34:	1a5b      	subs	r3, r3, r1
  36:	089b      	lsrs	r3, r3, #2
  38:	429a      	cmp	r2, r3
  3a:	d131      	bne.n	a0 <__startup+0x80>
  3c:	f44f 6380 	mov.w	r3, #1024	; 0x400
  40:	4a1f      	ldr	r2, [pc, #124]	; (c0 <__startup+0xa0>)
  42:	6013      	str	r3, [r2, #0]
  44:	f8c2 3200 	str.w	r3, [r2, #512]	; 0x200
  48:	4b1e      	ldr	r3, [pc, #120]	; (c4 <__startup+0xa4>)
  4a:	6a1a      	ldr	r2, [r3, #32]
  4c:	01d0      	lsls	r0, r2, #7
  4e:	d404      	bmi.n	5a <__startup+0x3a>
  50:	4a1d      	ldr	r2, [pc, #116]	; (c8 <__startup+0xa8>)
  52:	621a      	str	r2, [r3, #32]
  54:	6e9a      	ldr	r2, [r3, #104]	; 0x68
  56:	07d1      	lsls	r1, r2, #31
  58:	d5fc      	bpl.n	54 <__startup+0x34>
  5a:	4a1c      	ldr	r2, [pc, #112]	; (cc <__startup+0xac>)
  5c:	621a      	str	r2, [r3, #32]
  5e:	6e9a      	ldr	r2, [r3, #104]	; 0x68
  60:	03d2      	lsls	r2, r2, #15
  62:	d5fc      	bpl.n	5e <__startup+0x3e>
  64:	6b1a      	ldr	r2, [r3, #48]	; 0x30
  66:	f022 0203 	bic.w	r2, r2, #3
  6a:	f042 0201 	orr.w	r2, r2, #1
  6e:	631a      	str	r2, [r3, #48]	; 0x30
  70:	6e9a      	ldr	r2, [r3, #104]	; 0x68
  72:	0714      	lsls	r4, r2, #28
  74:	d5fc      	bpl.n	70 <__startup+0x50>
  76:	4a16      	ldr	r2, [pc, #88]	; (d0 <__startup+0xb0>)
  78:	629a      	str	r2, [r3, #40]	; 0x28
  7a:	6e9a      	ldr	r2, [r3, #104]	; 0x68
  7c:	0790      	lsls	r0, r2, #30
  7e:	d5fc      	bpl.n	7a <__startup+0x5a>
  80:	2211      	movs	r2, #17
  82:	631a      	str	r2, [r3, #48]	; 0x30
  84:	6e9a      	ldr	r2, [r3, #104]	; 0x68
  86:	0711      	lsls	r1, r2, #28
  88:	d5fc      	bpl.n	84 <__startup+0x64>
  8a:	2212      	movs	r2, #18
  8c:	631a      	str	r2, [r3, #48]	; 0x30
  8e:	6e9a      	ldr	r2, [r3, #104]	; 0x68
  90:	0712      	lsls	r2, r2, #28
  92:	d5fc      	bpl.n	8e <__startup+0x6e>
  94:	f000 f81e 	bl	d4 <main>
  98:	e7fe      	b.n	98 <__startup+0x78>
  9a:	f843 1b04 	str.w	r1, [r3], #4
  9e:	e7c3      	b.n	28 <__startup+0x8>
  a0:	f850 4022 	ldr.w	r4, [r0, r2, lsl #2]
  a4:	f841 4022 	str.w	r4, [r1, r2, lsl #2]
  a8:	3201      	adds	r2, #1
  aa:	e7c5      	b.n	38 <__startup+0x18>
  ac:	20014004 	.word	0x20014004
  b0:	20014000 	.word	0x20014000
  b4:	20014004 	.word	0x20014004
  b8:	20014004 	.word	0x20014004
  bc:	00000160 	.word	0x00000160
  c0:	400e0a00 	.word	0x400e0a00
  c4:	400e0600 	.word	0x400e0600
  c8:	00370809 	.word	0x00370809
  cc:	01370809 	.word	0x01370809
  d0:	200d3f01 	.word	0x200d3f01

000000d4 <main>:
  d4:	b537      	push	{r0, r1, r2, r4, r5, lr}
  d6:	491d      	ldr	r1, [pc, #116]	; (14c <main+0x78>)
  d8:	780b      	ldrb	r3, [r1, #0]
  da:	bb3b      	cbnz	r3, 12c <main+0x58>
  dc:	f44f 6000 	mov.w	r0, #2048	; 0x800
  e0:	f44f 7580 	mov.w	r5, #256	; 0x100
  e4:	4b1a      	ldr	r3, [pc, #104]	; (150 <main+0x7c>)
  e6:	4c1b      	ldr	r4, [pc, #108]	; (154 <main+0x80>)
  e8:	f5a3 63c0 	sub.w	r3, r3, #1536	; 0x600
  ec:	6120      	str	r0, [r4, #16]
  ee:	f8c3 5604 	str.w	r5, [r3, #1540]	; 0x604
  f2:	f8d3 2670 	ldr.w	r2, [r3, #1648]	; 0x670
  f6:	f422 7280 	bic.w	r2, r2, #256	; 0x100
  fa:	f8c3 2670 	str.w	r2, [r3, #1648]	; 0x670
  fe:	f44f 7200 	mov.w	r2, #512	; 0x200
 102:	f8c3 2604 	str.w	r2, [r3, #1540]	; 0x604
 106:	f8d3 2670 	ldr.w	r2, [r3, #1648]	; 0x670
 10a:	f422 7200 	bic.w	r2, r2, #512	; 0x200
 10e:	f8c3 2670 	str.w	r2, [r3, #1648]	; 0x670
 112:	22ac      	movs	r2, #172	; 0xac
 114:	6125      	str	r5, [r4, #16]
 116:	601a      	str	r2, [r3, #0]
 118:	222d      	movs	r2, #45	; 0x2d
 11a:	621a      	str	r2, [r3, #32]
 11c:	f04f 32ff 	mov.w	r2, #4294967295	; 0xffffffff
 120:	6058      	str	r0, [r3, #4]
 122:	60da      	str	r2, [r3, #12]
 124:	2250      	movs	r2, #80	; 0x50
 126:	601a      	str	r2, [r3, #0]
 128:	2301      	movs	r3, #1
 12a:	700b      	strb	r3, [r1, #0]
 12c:	2234      	movs	r2, #52	; 0x34
 12e:	4b0a      	ldr	r3, [pc, #40]	; (158 <main+0x84>)
 130:	f813 1f01 	ldrb.w	r1, [r3, #1]!
 134:	2900      	cmp	r1, #0
 136:	d1fb      	bne.n	130 <main+0x5c>
 138:	f8ad 2004 	strh.w	r2, [sp, #4]
 13c:	f10d 0303 	add.w	r3, sp, #3
 140:	f813 1f01 	ldrb.w	r1, [r3, #1]!
 144:	2900      	cmp	r1, #0
 146:	d1fb      	bne.n	140 <main+0x6c>
 148:	e7f1      	b.n	12e <main+0x5a>
 14a:	bf00      	nop
 14c:	20014000 	.word	0x20014000
 150:	400e0e00 	.word	0x400e0e00
 154:	400e0600 	.word	0x400e0600
 158:	0000015b 	.word	0x0000015b
 15c:	00616c42 	.word	0x00616c42
